#include <math.h>
#include <stdio.h>
#include <stdlib.h>
#include <string.h>

int main()
{
    char a[1000];
    gets(a);
    int k=0;
    int i,l;
    l=strlen(a);
    for(i=0;i<l;i++)
    {
                    if (a[i]!=' ')
                    {k=0;
                    printf("%c",a[i]);}
                    else 
                    {
                         k++;
                         if (k==1)
                         printf("%c",a[i]);
                    }
    }
    getchar();
}

