; ModuleID = '26/385.c'
source_filename = "26/385.c"
target datalayout = "e-m:e-p270:32:32-p271:32:32-p272:64:64-i64:64-f80:128-n8:16:32:64-S128"
target triple = "x86_64-pc-linux-gnu"

@.str = private unnamed_addr constant [3 x i8] c"%c\00", align 1

; Function Attrs: noinline nounwind uwtable
define dso_local i32 @main() #0 {
  %1 = alloca i32, align 4
  %2 = alloca [1000 x i8], align 16
  %3 = alloca i32, align 4
  %4 = alloca i32, align 4
  %5 = alloca i32, align 4
  store i32 0, i32* %1, align 4
  %6 = getelementptr inbounds [1000 x i8], [1000 x i8]* %2, i64 0, i64 0
  %7 = call i32 (i8*, ...) bitcast (i32 (...)* @gets to i32 (i8*, ...)*)(i8* %6)
  store i32 0, i32* %3, align 4
  %8 = getelementptr inbounds [1000 x i8], [1000 x i8]* %2, i64 0, i64 0
  %9 = call i64 @strlen(i8* %8) #3
  %10 = trunc i64 %9 to i32
  store i32 %10, i32* %5, align 4
  store i32 0, i32* %4, align 4
  br label %11

11:                                               ; preds = %43, %0
  %12 = load i32, i32* %4, align 4
  %13 = load i32, i32* %5, align 4
  %14 = icmp slt i32 %12, %13
  br i1 %14, label %15, label %46

15:                                               ; preds = %11
  %16 = load i32, i32* %4, align 4
  %17 = sext i32 %16 to i64
  %18 = getelementptr inbounds [1000 x i8], [1000 x i8]* %2, i64 0, i64 %17
  %19 = load i8, i8* %18, align 1
  %20 = sext i8 %19 to i32
  %21 = icmp ne i32 %20, 32
  br i1 %21, label %22, label %29

22:                                               ; preds = %15
  store i32 0, i32* %3, align 4
  %23 = load i32, i32* %4, align 4
  %24 = sext i32 %23 to i64
  %25 = getelementptr inbounds [1000 x i8], [1000 x i8]* %2, i64 0, i64 %24
  %26 = load i8, i8* %25, align 1
  %27 = sext i8 %26 to i32
  %28 = call i32 (i8*, ...) @printf(i8* getelementptr inbounds ([3 x i8], [3 x i8]* @.str, i64 0, i64 0), i32 %27)
  br label %42

29:                                               ; preds = %15
  %30 = load i32, i32* %3, align 4
  %31 = add nsw i32 %30, 1
  store i32 %31, i32* %3, align 4
  %32 = load i32, i32* %3, align 4
  %33 = icmp eq i32 %32, 1
  br i1 %33, label %34, label %41

34:                                               ; preds = %29
  %35 = load i32, i32* %4, align 4
  %36 = sext i32 %35 to i64
  %37 = getelementptr inbounds [1000 x i8], [1000 x i8]* %2, i64 0, i64 %36
  %38 = load i8, i8* %37, align 1
  %39 = sext i8 %38 to i32
  %40 = call i32 (i8*, ...) @printf(i8* getelementptr inbounds ([3 x i8], [3 x i8]* @.str, i64 0, i64 0), i32 %39)
  br label %41

41:                                               ; preds = %34, %29
  br label %42

42:                                               ; preds = %41, %22
  br label %43

43:                                               ; preds = %42
  %44 = load i32, i32* %4, align 4
  %45 = add nsw i32 %44, 1
  store i32 %45, i32* %4, align 4
  br label %11

46:                                               ; preds = %11
  %47 = call i32 @getchar()
  %48 = load i32, i32* %1, align 4
  ret i32 %48
}

declare dso_local i32 @gets(...) #1

; Function Attrs: nounwind readonly
declare dso_local i64 @strlen(i8*) #2

declare dso_local i32 @printf(i8*, ...) #1

declare dso_local i32 @getchar() #1


!llvm.module.flags = !{!0}
!llvm.ident = !{!1}

!0 = !{i32 1, !"wchar_size", i32 4}
!1 = !{!"clang version 10.0.0-4ubuntu1 "}
